target datalayout = "e-m:e-p270:32:32-p271:32:32-p272:64:64-i64:64-i128:128-f80:128-n8:16:32:64-S128"
target triple = "x86_64-pc-linux-gnu"

%struct.trav_visitor_t = type { ptr, ptr, ptr }

@enable_error_stack = external global i32, align 4
@H5tools_ERR_STACK_g = external global i64, align 8
@H5tools_ERR_CLS_g = external global i64, align 8
@.str.2 = private unnamed_addr constant [106 x i8] c"generated/home/dtcxzyw/WorkSpace/Projects/compilers/llvm-opt-benchmark/bench/hdf5/hdf5/tools/lib/h5trav.c\00", align 1
@H5E_tools_g = external global i64, align 8
@H5E_tools_min_id_g = external global i64, align 8
@.str.3 = private unnamed_addr constant [16 x i8] c"traverse failed\00", align 1
@stderr = external global ptr, align 8
@.str.4 = private unnamed_addr constant [2 x i8] c"\0A\00", align 1
@__func__.h5trav_visit = private unnamed_addr constant [13 x i8] c"h5trav_visit\00", align 1

; Function Attrs: nounwind uwtable
define i32 @h5trav_visit(i64 noundef %0, ptr noundef %1, i1 noundef zeroext %2, i1 noundef zeroext %3, ptr noundef %4, ptr noundef %5, ptr noundef %6, i32 noundef %7) #0 {
  %9 = alloca i64, align 8
  %10 = alloca ptr, align 8
  %11 = alloca i8, align 1
  %12 = alloca i8, align 1
  %13 = alloca ptr, align 8
  %14 = alloca ptr, align 8
  %15 = alloca ptr, align 8
  %16 = alloca i32, align 4
  %17 = alloca %struct.trav_visitor_t, align 8
  %18 = alloca i32, align 4
  store i64 %0, ptr %9, align 8, !tbaa !21
  store ptr %1, ptr %10, align 8, !tbaa !10
  %19 = zext i1 %2 to i8
  store i8 %19, ptr %11, align 1, !tbaa !27
  %20 = zext i1 %3 to i8
  store i8 %20, ptr %12, align 1, !tbaa !27
  store ptr %4, ptr %13, align 8, !tbaa !36
  store ptr %5, ptr %14, align 8, !tbaa !36
  store ptr %6, ptr %15, align 8, !tbaa !36
  store i32 %7, ptr %16, align 4, !tbaa !3
  call void @llvm.lifetime.start.p0(i64 24, ptr %17) #10
  call void @llvm.lifetime.start.p0(i64 4, ptr %18) #10
  store i32 0, ptr %18, align 4, !tbaa !3
  %21 = load ptr, ptr %13, align 8, !tbaa !36
  %22 = getelementptr inbounds nuw %struct.trav_visitor_t, ptr %17, i32 0, i32 0
  store ptr %21, ptr %22, align 8, !tbaa !40
  %23 = load ptr, ptr %14, align 8, !tbaa !36
  %24 = getelementptr inbounds nuw %struct.trav_visitor_t, ptr %17, i32 0, i32 1
  store ptr %23, ptr %24, align 8, !tbaa !42
  %25 = load ptr, ptr %15, align 8, !tbaa !36
  %26 = getelementptr inbounds nuw %struct.trav_visitor_t, ptr %17, i32 0, i32 2
  store ptr %25, ptr %26, align 8, !tbaa !43
  %27 = load i64, ptr %9, align 8, !tbaa !21
  %28 = load ptr, ptr %10, align 8, !tbaa !10
  %29 = load i8, ptr %11, align 1, !tbaa !27, !range !28, !noundef !29
  %30 = trunc i8 %29 to i1
  %31 = load i8, ptr %12, align 1, !tbaa !27, !range !28, !noundef !29
  %32 = trunc i8 %31 to i1
  %33 = load i32, ptr %16, align 4, !tbaa !3
  %34 = call i32 @traverse(i64 noundef %27, ptr noundef %28, i1 noundef zeroext %30, i1 noundef zeroext %32, ptr noundef %17, i32 noundef %33)
  %35 = icmp slt i32 %34, 0
  br i1 %35, label %36, label %67

36:                                               ; preds = %8
  br label %37

37:                                               ; preds = %36
  br label %38

38:                                               ; preds = %37
  %39 = load i32, ptr @enable_error_stack, align 4, !tbaa !3
  %40 = icmp sgt i32 %39, 0
  br i1 %40, label %41, label %59

41:                                               ; preds = %38
  %42 = load i64, ptr @H5tools_ERR_STACK_g, align 8, !tbaa !21
  %43 = icmp sge i64 %42, 0
  br i1 %43, label %44, label %53

44:                                               ; preds = %41
  %45 = load i64, ptr @H5tools_ERR_CLS_g, align 8, !tbaa !21
  %46 = icmp sge i64 %45, 0
  br i1 %46, label %47, label %53

47:                                               ; preds = %44
  %48 = load i64, ptr @H5tools_ERR_STACK_g, align 8, !tbaa !21
  %49 = load i64, ptr @H5tools_ERR_CLS_g, align 8, !tbaa !21
  %50 = load i64, ptr @H5E_tools_g, align 8, !tbaa !21
  %51 = load i64, ptr @H5E_tools_min_id_g, align 8, !tbaa !21
  %52 = call i32 (i64, ptr, ptr, i32, i64, i64, i64, ptr, ...) @H5Epush2(i64 noundef %48, ptr noundef @.str.2, ptr noundef @__func__.h5trav_visit, i32 noundef 1050, i64 noundef %49, i64 noundef %50, i64 noundef %51, ptr noundef @.str.3)
  br label %58

53:                                               ; preds = %44, %41
  %54 = load ptr, ptr @stderr, align 8, !tbaa !44
  %55 = call i32 (ptr, ptr, ...) @fprintf(ptr noundef %54, ptr noundef @.str.3) #10
  %56 = load ptr, ptr @stderr, align 8, !tbaa !44
  %57 = call i32 (ptr, ptr, ...) @fprintf(ptr noundef %56, ptr noundef @.str.4) #10
  br label %58

58:                                               ; preds = %53, %47
  br label %59

59:                                               ; preds = %58, %38
  br label %60

60:                                               ; preds = %59
  br label %61

61:                                               ; preds = %60
  br label %62

62:                                               ; preds = %61
  store i32 -1, ptr %18, align 4, !tbaa !3
  br label %68

63:                                               ; No predecessors!
  br label %64

64:                                               ; preds = %63
  br label %65

65:                                               ; preds = %64
  br label %66

66:                                               ; preds = %65
  br label %67

67:                                               ; preds = %66, %8
  br label %68

68:                                               ; preds = %67, %62
  %69 = load i32, ptr %18, align 4, !tbaa !3
  call void @llvm.lifetime.end.p0(i64 4, ptr %18) #10
  call void @llvm.lifetime.end.p0(i64 24, ptr %17) #10
  ret i32 %69
}