; Function Attrs: nounwind uwtable
define range(i32 -1, 1) i32 @h5trav_visit(i64 noundef %0, ptr noundef %1, i1 noundef zeroext %2, i1 noundef zeroext %3, ptr noundef %4, ptr noundef %5, ptr noundef %6, i32 noundef %7) local_unnamed_addr #1 {
  %9 = alloca %struct.trav_visitor_t, align 8
  call void @llvm.lifetime.start.p0(i64 24, ptr nonnull %9) #18
  store ptr %4, ptr %9, align 8, !tbaa !34
  %10 = getelementptr inbounds nuw i8, ptr %9, i64 8
  store ptr %5, ptr %10, align 8, !tbaa !36
  %11 = getelementptr inbounds nuw i8, ptr %9, i64 16
  store ptr %6, ptr %11, align 8, !tbaa !37
  %12 = call fastcc i32 @traverse(i64 noundef %0, ptr noundef %1, i1 noundef zeroext %2, i1 noundef zeroext %3, ptr noundef %9, i32 noundef %7)
  %13 = icmp slt i32 %12, 0
  br i1 %13, label %14, label %30

14:                                               ; preds = %8
  %15 = load i32, ptr @enable_error_stack, align 4, !tbaa !3
  %16 = icmp sgt i32 %15, 0
  br i1 %16, label %17, label %30

17:                                               ; preds = %14
  %18 = load i64, ptr @H5tools_ERR_STACK_g, align 8, !tbaa !38
  %19 = icmp sgt i64 %18, -1
  %20 = load i64, ptr @H5tools_ERR_CLS_g, align 8
  %21 = icmp sgt i64 %20, -1
  %or.cond = select i1 %19, i1 %21, i1 false
  br i1 %or.cond, label %22, label %26

22:                                               ; preds = %17
  %23 = load i64, ptr @H5E_tools_g, align 8, !tbaa !38
  %24 = load i64, ptr @H5E_tools_min_id_g, align 8, !tbaa !38
  %25 = call i32 (i64, ptr, ptr, i32, i64, i64, i64, ptr, ...) @H5Epush2(i64 noundef %18, ptr noundef nonnull @.str.2, ptr noundef nonnull @__func__.h5trav_visit, i32 noundef 1050, i64 noundef %20, i64 noundef %23, i64 noundef %24, ptr noundef nonnull @.str.3) #18
  br label %30

26:                                               ; preds = %17
  %27 = load ptr, ptr @stderr, align 8, !tbaa !39
  %28 = call i64 @fwrite(ptr nonnull @.str.3, i64 15, i64 1, ptr %27) #19
  %29 = load ptr, ptr @stderr, align 8, !tbaa !39
  %fputc = call i32 @fputc(i32 10, ptr %29)
  br label %30

30:                                               ; preds = %22, %26, %14, %8
  %.0 = phi i32 [ 0, %8 ], [ -1, %14 ], [ -1, %26 ], [ -1, %22 ]
  call void @llvm.lifetime.end.p0(i64 24, ptr nonnull %9) #18
  ret i32 %.0
}